target datalayout = "e-m:e-p270:32:32-p271:32:32-p272:64:64-i64:64-i128:128-f80:128-n8:16:32:64-S128"
target triple = "x86_64-pc-linux-gnu"

%struct.rb_data_type_struct = type { ptr, %struct.anon, ptr, ptr, i64 }
%struct.anon = type { ptr, ptr, ptr, ptr, [1 x ptr] }

@eEC_GROUP = internal global i64 0, align 8
@ossl_ec_group_type = internal constant %struct.rb_data_type_struct { ptr @.str.61, %struct.anon { ptr null, ptr @ossl_ec_group_free, ptr null, ptr null, [1 x ptr] zeroinitializer }, ptr null, ptr null, i64 33 }, align 8
@.str.59 = private unnamed_addr constant [28 x i8] c"EC_GROUP is not initialized\00", align 1
@.str.84 = private unnamed_addr constant [13 x i8] c"EC_GROUP_cmp\00", align 1

; Function Attrs: nounwind sspstrong uwtable
define internal i64 @ossl_ec_group_eql(i64 noundef %0, i64 noundef %1) #0 {
  %3 = alloca i64, align 8
  %4 = alloca i64, align 8
  %5 = alloca i64, align 8
  %6 = alloca ptr, align 8
  %7 = alloca ptr, align 8
  %8 = alloca i32, align 4
  store i64 %0, ptr %4, align 8, !tbaa !6
  store i64 %1, ptr %5, align 8, !tbaa !6
  call void @llvm.lifetime.start.p0(i64 8, ptr %6) #19
  store ptr null, ptr %6, align 8, !tbaa !33
  call void @llvm.lifetime.start.p0(i64 8, ptr %7) #19
  store ptr null, ptr %7, align 8, !tbaa !33
  br label %9

9:                                                ; preds = %2
  %10 = load i64, ptr %4, align 8, !tbaa !6
  %11 = call ptr @rb_check_typeddata(i64 noundef %10, ptr noundef @ossl_ec_group_type)
  store ptr %11, ptr %6, align 8, !tbaa !33
  %12 = load ptr, ptr %6, align 8, !tbaa !33
  %13 = icmp eq ptr %12, null
  br i1 %13, label %14, label %16

14:                                               ; preds = %9
  %15 = load i64, ptr @eEC_GROUP, align 8, !tbaa !6
  call void (i64, ptr, ...) @ossl_raise(i64 noundef %15, ptr noundef @.str.59) #20
  unreachable

16:                                               ; preds = %9
  br label %17

17:                                               ; preds = %16
  br label %18

18:                                               ; preds = %17
  br label %19

19:                                               ; preds = %18
  %20 = load i64, ptr %5, align 8, !tbaa !6
  %21 = call ptr @rb_check_typeddata(i64 noundef %20, ptr noundef @ossl_ec_group_type)
  store ptr %21, ptr %7, align 8, !tbaa !33
  %22 = load ptr, ptr %7, align 8, !tbaa !33
  %23 = icmp eq ptr %22, null
  br i1 %23, label %24, label %26

24:                                               ; preds = %19
  %25 = load i64, ptr @eEC_GROUP, align 8, !tbaa !6
  call void (i64, ptr, ...) @ossl_raise(i64 noundef %25, ptr noundef @.str.59) #20
  unreachable

26:                                               ; preds = %19
  br label %27

27:                                               ; preds = %26
  br label %28

28:                                               ; preds = %27
  %29 = load ptr, ptr %6, align 8, !tbaa !33
  %30 = load ptr, ptr %7, align 8, !tbaa !33
  %31 = call ptr @ossl_bn_ctx_get()
  %32 = call i32 @EC_GROUP_cmp(ptr noundef %29, ptr noundef %30, ptr noundef %31)
  switch i32 %32, label %35 [
    i32 0, label %33
    i32 1, label %34
  ]

33:                                               ; preds = %28
  store i64 20, ptr %3, align 8
  store i32 1, ptr %8, align 4
  br label %37

34:                                               ; preds = %28
  store i64 0, ptr %3, align 8
  store i32 1, ptr %8, align 4
  br label %37

35:                                               ; preds = %28
  %36 = load i64, ptr @eEC_GROUP, align 8, !tbaa !6
  call void (i64, ptr, ...) @ossl_raise(i64 noundef %36, ptr noundef @.str.84) #20
  unreachable

37:                                               ; preds = %34, %33
  call void @llvm.lifetime.end.p0(i64 8, ptr %7) #19
  call void @llvm.lifetime.end.p0(i64 8, ptr %6) #19
  %38 = load i64, ptr %3, align 8
  ret i64 %38
}