; Function Attrs: nounwind sspstrong uwtable
define internal range(i64 0, 21) i64 @ossl_ec_group_eql(i64 noundef %0, i64 noundef %1) #0 {
  %3 = tail call ptr @rb_check_typeddata(i64 noundef %0, ptr noundef nonnull @ossl_ec_group_type) #7
  %4 = icmp eq ptr %3, null
  br i1 %4, label %5, label %7

5:                                                ; preds = %2
  %6 = load i64, ptr @eEC_GROUP, align 8, !tbaa !6
  tail call void (i64, ptr, ...) @ossl_raise(i64 noundef %6, ptr noundef nonnull @.str.59) #9
  unreachable

7:                                                ; preds = %2
  %8 = tail call ptr @rb_check_typeddata(i64 noundef %1, ptr noundef nonnull @ossl_ec_group_type) #7
  %9 = icmp eq ptr %8, null
  br i1 %9, label %10, label %12

10:                                               ; preds = %7
  %11 = load i64, ptr @eEC_GROUP, align 8, !tbaa !6
  tail call void (i64, ptr, ...) @ossl_raise(i64 noundef %11, ptr noundef nonnull @.str.59) #9
  unreachable

12:                                               ; preds = %7
  %13 = tail call ptr @ossl_bn_ctx_get() #7
  %14 = tail call i32 @EC_GROUP_cmp(ptr noundef nonnull %3, ptr noundef nonnull %8, ptr noundef %13) #7
  switch i32 %14, label %16 [
    i32 0, label %18
    i32 1, label %15
  ]

15:                                               ; preds = %12
  br label %18

16:                                               ; preds = %12
  %17 = load i64, ptr @eEC_GROUP, align 8, !tbaa !6
  tail call void (i64, ptr, ...) @ossl_raise(i64 noundef %17, ptr noundef nonnull @.str.84) #9
  unreachable

18:                                               ; preds = %12, %15
  %.0 = phi i64 [ 0, %15 ], [ 20, %12 ]
  ret i64 %.0
}